target datalayout = "e-m:e-p270:32:32-p271:32:32-p272:64:64-i64:64-i128:128-f80:128-n8:16:32:64-S128"
target triple = "x86_64-pc-linux-gnu"

%"class.testing::internal::linked_ptr_internal" = type { ptr }
%"class.testing::internal::ParamGenerator.41" = type { %"class.testing::internal::linked_ptr.42" }
%"class.testing::internal::linked_ptr.42" = type { ptr, %"class.testing::internal::linked_ptr_internal" }
%"class.testing::internal::ParamGenerator.43" = type { %"class.testing::internal::linked_ptr.44" }
%"class.testing::internal::linked_ptr.44" = type { ptr, %"class.testing::internal::linked_ptr_internal" }
%"class.testing::internal::ParamGenerator.45" = type { %"class.testing::internal::linked_ptr.46" }
%"class.testing::internal::linked_ptr.46" = type { ptr, %"class.testing::internal::linked_ptr_internal" }
%"class.testing::internal::CartesianProductGenerator3" = type { %"class.testing::internal::ParamGeneratorInterface", %"class.testing::internal::ParamGenerator.41", %"class.testing::internal::ParamGenerator.43", %"class.testing::internal::ParamGenerator.45" }
%"class.testing::internal::ParamGeneratorInterface" = type { ptr }
%"class.testing::internal::ParamIterator" = type { %"class.testing::internal::scoped_ptr.76" }
%"class.testing::internal::scoped_ptr.76" = type { ptr }
%"class.testing::internal::ParamIterator.77" = type { %"class.testing::internal::scoped_ptr.78" }
%"class.testing::internal::scoped_ptr.78" = type { ptr }
%"class.testing::internal::ParamIterator.79" = type { %"class.testing::internal::scoped_ptr.80" }
%"class.testing::internal::scoped_ptr.80" = type { ptr }

; Function Attrs: mustprogress nounwind uwtable
define internal void @_ZN7testing8internal10scoped_ptrINS0_22ParamIteratorInterfaceIN4perf12_GLOBAL__N_18MatDepthEEEEC2EPS6_(ptr noundef nonnull align 8 dereferenceable(8) %0, ptr noundef %1) unnamed_addr #7 align 2 {
  %3 = alloca ptr, align 8
  %4 = alloca ptr, align 8
  store ptr %0, ptr %3, align 8, !tbaa !449
  store ptr %1, ptr %4, align 8, !tbaa !416
  %5 = load ptr, ptr %3, align 8
  %6 = getelementptr inbounds nuw %"class.testing::internal::scoped_ptr.80", ptr %5, i32 0, i32 0
  %7 = load ptr, ptr %4, align 8, !tbaa !416
  store ptr %7, ptr %6, align 8, !tbaa !451
  ret void
}

; Function Attrs: mustprogress nounwind uwtable
define linkonce_odr hidden void @_ZN7testing8internal10scoped_ptrINS0_22ParamIteratorInterfaceIN4perf7MatTypeEEEEC2EPS5_(ptr noundef nonnull align 8 dereferenceable(8) %0, ptr noundef %1) unnamed_addr #7 comdat align 2 {
  %3 = alloca ptr, align 8
  %4 = alloca ptr, align 8
  store ptr %0, ptr %3, align 8, !tbaa !446
  store ptr %1, ptr %4, align 8, !tbaa !373
  %5 = load ptr, ptr %3, align 8
  %6 = getelementptr inbounds nuw %"class.testing::internal::scoped_ptr.78", ptr %5, i32 0, i32 0
  %7 = load ptr, ptr %4, align 8, !tbaa !373
  store ptr %7, ptr %6, align 8, !tbaa !448
  ret void
}

; Function Attrs: mustprogress nounwind uwtable
define linkonce_odr hidden void @_ZN7testing8internal10scoped_ptrINS0_22ParamIteratorInterfaceIN2cv5Size_IiEEEEEC2EPS6_(ptr noundef nonnull align 8 dereferenceable(8) %0, ptr noundef %1) unnamed_addr #7 comdat align 2 {
  %3 = alloca ptr, align 8
  %4 = alloca ptr, align 8
  store ptr %0, ptr %3, align 8, !tbaa !443
  store ptr %1, ptr %4, align 8, !tbaa !313
  %5 = load ptr, ptr %3, align 8
  %6 = getelementptr inbounds nuw %"class.testing::internal::scoped_ptr.76", ptr %5, i32 0, i32 0
  %7 = load ptr, ptr %4, align 8, !tbaa !313
  store ptr %7, ptr %6, align 8, !tbaa !445
  ret void
}

; Function Attrs: mustprogress uwtable
define internal void @_ZN7testing8internal13ParamIteratorIN4perf12_GLOBAL__N_18MatDepthEEC2EPNS0_22ParamIteratorInterfaceIS4_EE(ptr noundef nonnull align 8 dereferenceable(8) %0, ptr noundef %1) unnamed_addr #6 align 2 {
  %3 = alloca ptr, align 8
  %4 = alloca ptr, align 8
  store ptr %0, ptr %3, align 8, !tbaa !431
  store ptr %1, ptr %4, align 8, !tbaa !416
  %5 = load ptr, ptr %3, align 8
  %6 = getelementptr inbounds nuw %"class.testing::internal::ParamIterator.79", ptr %5, i32 0, i32 0
  %7 = load ptr, ptr %4, align 8, !tbaa !416
  call void @_ZN7testing8internal10scoped_ptrINS0_22ParamIteratorInterfaceIN4perf12_GLOBAL__N_18MatDepthEEEEC2EPS6_(ptr noundef nonnull align 8 dereferenceable(8) %6, ptr noundef %7)
  ret void
}

; Function Attrs: mustprogress nounwind uwtable
define internal noundef ptr @_ZNK7testing8internal10linked_ptrIKNS0_23ParamGeneratorInterfaceIN4perf12_GLOBAL__N_18MatDepthEEEEptEv(ptr noundef nonnull align 8 dereferenceable(16) %0) #7 align 2 {
  %2 = alloca ptr, align 8
  store ptr %0, ptr %2, align 8, !tbaa !421
  %3 = load ptr, ptr %2, align 8
  %4 = getelementptr inbounds nuw %"class.testing::internal::linked_ptr.46", ptr %3, i32 0, i32 0
  %5 = load ptr, ptr %4, align 8, !tbaa !423
  ret ptr %5
}

; Function Attrs: mustprogress uwtable
define linkonce_odr hidden void @_ZN7testing8internal13ParamIteratorIN4perf7MatTypeEEC2EPNS0_22ParamIteratorInterfaceIS3_EE(ptr noundef nonnull align 8 dereferenceable(8) %0, ptr noundef %1) unnamed_addr #6 comdat align 2 {
  %3 = alloca ptr, align 8
  %4 = alloca ptr, align 8
  store ptr %0, ptr %3, align 8, !tbaa !429
  store ptr %1, ptr %4, align 8, !tbaa !373
  %5 = load ptr, ptr %3, align 8
  %6 = getelementptr inbounds nuw %"class.testing::internal::ParamIterator.77", ptr %5, i32 0, i32 0
  %7 = load ptr, ptr %4, align 8, !tbaa !373
  call void @_ZN7testing8internal10scoped_ptrINS0_22ParamIteratorInterfaceIN4perf7MatTypeEEEEC2EPS5_(ptr noundef nonnull align 8 dereferenceable(8) %6, ptr noundef %7)
  ret void
}

; Function Attrs: mustprogress nounwind uwtable
define linkonce_odr hidden noundef ptr @_ZNK7testing8internal10linked_ptrIKNS0_23ParamGeneratorInterfaceIN4perf7MatTypeEEEEptEv(ptr noundef nonnull align 8 dereferenceable(16) %0) #7 comdat align 2 {
  %2 = alloca ptr, align 8
  store ptr %0, ptr %2, align 8, !tbaa !378
  %3 = load ptr, ptr %2, align 8
  %4 = getelementptr inbounds nuw %"class.testing::internal::linked_ptr.44", ptr %3, i32 0, i32 0
  %5 = load ptr, ptr %4, align 8, !tbaa !380
  ret ptr %5
}

; Function Attrs: mustprogress uwtable
define linkonce_odr hidden void @_ZN7testing8internal13ParamIteratorIN2cv5Size_IiEEEC2EPNS0_22ParamIteratorInterfaceIS4_EE(ptr noundef nonnull align 8 dereferenceable(8) %0, ptr noundef %1) unnamed_addr #6 comdat align 2 {
  %3 = alloca ptr, align 8
  %4 = alloca ptr, align 8
  store ptr %0, ptr %3, align 8, !tbaa !427
  store ptr %1, ptr %4, align 8, !tbaa !313
  %5 = load ptr, ptr %3, align 8
  %6 = getelementptr inbounds nuw %"class.testing::internal::ParamIterator", ptr %5, i32 0, i32 0
  %7 = load ptr, ptr %4, align 8, !tbaa !313
  call void @_ZN7testing8internal10scoped_ptrINS0_22ParamIteratorInterfaceIN2cv5Size_IiEEEEEC2EPS6_(ptr noundef nonnull align 8 dereferenceable(8) %6, ptr noundef %7)
  ret void
}

; Function Attrs: mustprogress nounwind uwtable
define linkonce_odr hidden noundef ptr @_ZNK7testing8internal10linked_ptrIKNS0_23ParamGeneratorInterfaceIN2cv5Size_IiEEEEEptEv(ptr noundef nonnull align 8 dereferenceable(16) %0) #7 comdat align 2 {
  %2 = alloca ptr, align 8
  store ptr %0, ptr %2, align 8, !tbaa !334
  %3 = load ptr, ptr %2, align 8
  %4 = getelementptr inbounds nuw %"class.testing::internal::linked_ptr.42", ptr %3, i32 0, i32 0
  %5 = load ptr, ptr %4, align 8, !tbaa !336
  ret ptr %5
}

; Function Attrs: mustprogress uwtable
define internal void @_ZNK7testing8internal14ParamGeneratorIN4perf12_GLOBAL__N_18MatDepthEE5beginEv(ptr dead_on_unwind noalias writable sret(%"class.testing::internal::ParamIterator.79") align 8 %0, ptr noundef nonnull align 8 dereferenceable(16) %1) #6 align 2 {
  %3 = alloca ptr, align 8
  %4 = alloca ptr, align 8
  store ptr %0, ptr %3, align 8
  store ptr %1, ptr %4, align 8, !tbaa !273
  %5 = load ptr, ptr %4, align 8
  %6 = getelementptr inbounds nuw %"class.testing::internal::ParamGenerator.45", ptr %5, i32 0, i32 0
  %7 = call noundef ptr @_ZNK7testing8internal10linked_ptrIKNS0_23ParamGeneratorInterfaceIN4perf12_GLOBAL__N_18MatDepthEEEEptEv(ptr noundef nonnull align 8 dereferenceable(16) %6)
  %8 = load ptr, ptr %7, align 8, !tbaa !24
  %9 = getelementptr inbounds ptr, ptr %8, i64 2
  %10 = load ptr, ptr %9, align 8
  %11 = call noundef ptr %10(ptr noundef nonnull align 8 dereferenceable(8) %7)
  call void @_ZN7testing8internal13ParamIteratorIN4perf12_GLOBAL__N_18MatDepthEEC2EPNS0_22ParamIteratorInterfaceIS4_EE(ptr noundef nonnull align 8 dereferenceable(8) %0, ptr noundef %11)
  ret void
}

; Function Attrs: mustprogress uwtable
define linkonce_odr hidden void @_ZNK7testing8internal14ParamGeneratorIN4perf7MatTypeEE5beginEv(ptr dead_on_unwind noalias writable sret(%"class.testing::internal::ParamIterator.77") align 8 %0, ptr noundef nonnull align 8 dereferenceable(16) %1) #6 comdat align 2 {
  %3 = alloca ptr, align 8
  %4 = alloca ptr, align 8
  store ptr %0, ptr %3, align 8
  store ptr %1, ptr %4, align 8, !tbaa !271
  %5 = load ptr, ptr %4, align 8
  %6 = getelementptr inbounds nuw %"class.testing::internal::ParamGenerator.43", ptr %5, i32 0, i32 0
  %7 = call noundef ptr @_ZNK7testing8internal10linked_ptrIKNS0_23ParamGeneratorInterfaceIN4perf7MatTypeEEEEptEv(ptr noundef nonnull align 8 dereferenceable(16) %6)
  %8 = load ptr, ptr %7, align 8, !tbaa !24
  %9 = getelementptr inbounds ptr, ptr %8, i64 2
  %10 = load ptr, ptr %9, align 8
  %11 = call noundef ptr %10(ptr noundef nonnull align 8 dereferenceable(8) %7)
  call void @_ZN7testing8internal13ParamIteratorIN4perf7MatTypeEEC2EPNS0_22ParamIteratorInterfaceIS3_EE(ptr noundef nonnull align 8 dereferenceable(8) %0, ptr noundef %11)
  ret void
}

; Function Attrs: mustprogress uwtable
define linkonce_odr hidden void @_ZNK7testing8internal14ParamGeneratorIN2cv5Size_IiEEE5beginEv(ptr dead_on_unwind noalias writable sret(%"class.testing::internal::ParamIterator") align 8 %0, ptr noundef nonnull align 8 dereferenceable(16) %1) #6 comdat align 2 {
  %3 = alloca ptr, align 8
  %4 = alloca ptr, align 8
  store ptr %0, ptr %3, align 8
  store ptr %1, ptr %4, align 8, !tbaa !269
  %5 = load ptr, ptr %4, align 8
  %6 = getelementptr inbounds nuw %"class.testing::internal::ParamGenerator.41", ptr %5, i32 0, i32 0
  %7 = call noundef ptr @_ZNK7testing8internal10linked_ptrIKNS0_23ParamGeneratorInterfaceIN2cv5Size_IiEEEEEptEv(ptr noundef nonnull align 8 dereferenceable(16) %6)
  %8 = load ptr, ptr %7, align 8, !tbaa !24
  %9 = getelementptr inbounds ptr, ptr %8, i64 2
  %10 = load ptr, ptr %9, align 8
  %11 = call noundef ptr %10(ptr noundef nonnull align 8 dereferenceable(8) %7)
  call void @_ZN7testing8internal13ParamIteratorIN2cv5Size_IiEEEC2EPNS0_22ParamIteratorInterfaceIS4_EE(ptr noundef nonnull align 8 dereferenceable(8) %0, ptr noundef %11)
  ret void
}

; Function Attrs: mustprogress uwtable
define internal noundef ptr @_ZNK7testing8internal26CartesianProductGenerator3IN2cv5Size_IiEEN4perf7MatTypeENS5_12_GLOBAL__N_18MatDepthEE5BeginEv(ptr noundef nonnull align 8 dereferenceable(56) %0) unnamed_addr #6 align 2 personality ptr @__gxx_personality_v0 {
  %2 = alloca ptr, align 8
  %3 = alloca %"class.testing::internal::ParamIterator", align 8
  %4 = alloca ptr, align 8
  %5 = alloca i32, align 4
  %6 = alloca %"class.testing::internal::ParamIterator.77", align 8
  %7 = alloca %"class.testing::internal::ParamIterator.79", align 8
  %8 = alloca i1, align 1
  store ptr %0, ptr %2, align 8, !tbaa !267
  %9 = load ptr, ptr %2, align 8
  %10 = call noalias noundef nonnull ptr @_Znwm(i64 noundef 104) #26
  store i1 true, ptr %8, align 1
  %11 = getelementptr inbounds nuw %"class.testing::internal::CartesianProductGenerator3", ptr %9, i32 0, i32 1
  call void @llvm.lifetime.start.p0(i64 8, ptr %3) #3
  %12 = getelementptr inbounds nuw %"class.testing::internal::CartesianProductGenerator3", ptr %9, i32 0, i32 1
  invoke void @_ZNK7testing8internal14ParamGeneratorIN2cv5Size_IiEEE5beginEv(ptr dead_on_unwind writable sret(%"class.testing::internal::ParamIterator") align 8 %3, ptr noundef nonnull align 8 dereferenceable(16) %12)
          to label %13 unwind label %21

13:                                               ; preds = %1
  %14 = getelementptr inbounds nuw %"class.testing::internal::CartesianProductGenerator3", ptr %9, i32 0, i32 2
  call void @llvm.lifetime.start.p0(i64 8, ptr %6) #3
  %15 = getelementptr inbounds nuw %"class.testing::internal::CartesianProductGenerator3", ptr %9, i32 0, i32 2
  invoke void @_ZNK7testing8internal14ParamGeneratorIN4perf7MatTypeEE5beginEv(ptr dead_on_unwind writable sret(%"class.testing::internal::ParamIterator.77") align 8 %6, ptr noundef nonnull align 8 dereferenceable(16) %15)
          to label %16 unwind label %25

16:                                               ; preds = %13
  %17 = getelementptr inbounds nuw %"class.testing::internal::CartesianProductGenerator3", ptr %9, i32 0, i32 3
  call void @llvm.lifetime.start.p0(i64 8, ptr %7) #3
  %18 = getelementptr inbounds nuw %"class.testing::internal::CartesianProductGenerator3", ptr %9, i32 0, i32 3
  invoke void @_ZNK7testing8internal14ParamGeneratorIN4perf12_GLOBAL__N_18MatDepthEE5beginEv(ptr dead_on_unwind writable sret(%"class.testing::internal::ParamIterator.79") align 8 %7, ptr noundef nonnull align 8 dereferenceable(16) %18)
          to label %19 unwind label %29

19:                                               ; preds = %16
  invoke void @_ZN7testing8internal26CartesianProductGenerator3IN2cv5Size_IiEEN4perf7MatTypeENS5_12_GLOBAL__N_18MatDepthEE8IteratorC2EPKNS0_23ParamGeneratorInterfaceISt5tupleIJS4_S6_S8_EEEERKNS0_14ParamGeneratorIS4_EERKNS0_13ParamIteratorIS4_EERKNSH_IS6_EERKNSL_IS6_EERKNSH_IS8_EERKNSL_IS8_EE(ptr noundef nonnull align 8 dereferenceable(104) %10, ptr noundef %9, ptr noundef nonnull align 8 dereferenceable(16) %11, ptr noundef nonnull align 8 dereferenceable(8) %3, ptr noundef nonnull align 8 dereferenceable(16) %14, ptr noundef nonnull align 8 dereferenceable(8) %6, ptr noundef nonnull align 8 dereferenceable(16) %17, ptr noundef nonnull align 8 dereferenceable(8) %7)
          to label %20 unwind label %33

20:                                               ; preds = %19
  store i1 false, ptr %8, align 1
  call void @_ZN7testing8internal13ParamIteratorIN4perf12_GLOBAL__N_18MatDepthEED2Ev(ptr noundef nonnull align 8 dereferenceable(8) %7) #3
  call void @llvm.lifetime.end.p0(i64 8, ptr %7) #3
  call void @_ZN7testing8internal13ParamIteratorIN4perf7MatTypeEED2Ev(ptr noundef nonnull align 8 dereferenceable(8) %6) #3
  call void @llvm.lifetime.end.p0(i64 8, ptr %6) #3
  call void @_ZN7testing8internal13ParamIteratorIN2cv5Size_IiEEED2Ev(ptr noundef nonnull align 8 dereferenceable(8) %3) #3
  call void @llvm.lifetime.end.p0(i64 8, ptr %3) #3
  ret ptr %10

21:                                               ; preds = %1
  %22 = landingpad { ptr, i32 }
          cleanup
  %23 = extractvalue { ptr, i32 } %22, 0
  store ptr %23, ptr %4, align 8
  %24 = extractvalue { ptr, i32 } %22, 1
  store i32 %24, ptr %5, align 4
  br label %39

25:                                               ; preds = %13
  %26 = landingpad { ptr, i32 }
          cleanup
  %27 = extractvalue { ptr, i32 } %26, 0
  store ptr %27, ptr %4, align 8
  %28 = extractvalue { ptr, i32 } %26, 1
  store i32 %28, ptr %5, align 4
  br label %38

29:                                               ; preds = %16
  %30 = landingpad { ptr, i32 }
          cleanup
  %31 = extractvalue { ptr, i32 } %30, 0
  store ptr %31, ptr %4, align 8
  %32 = extractvalue { ptr, i32 } %30, 1
  store i32 %32, ptr %5, align 4
  br label %37

33:                                               ; preds = %19
  %34 = landingpad { ptr, i32 }
          cleanup
  %35 = extractvalue { ptr, i32 } %34, 0
  store ptr %35, ptr %4, align 8
  %36 = extractvalue { ptr, i32 } %34, 1
  store i32 %36, ptr %5, align 4
  call void @_ZN7testing8internal13ParamIteratorIN4perf12_GLOBAL__N_18MatDepthEED2Ev(ptr noundef nonnull align 8 dereferenceable(8) %7) #3
  br label %37

37:                                               ; preds = %33, %29
  call void @llvm.lifetime.end.p0(i64 8, ptr %7) #3
  call void @_ZN7testing8internal13ParamIteratorIN4perf7MatTypeEED2Ev(ptr noundef nonnull align 8 dereferenceable(8) %6) #3
  br label %38

38:                                               ; preds = %37, %25
  call void @llvm.lifetime.end.p0(i64 8, ptr %6) #3
  call void @_ZN7testing8internal13ParamIteratorIN2cv5Size_IiEEED2Ev(ptr noundef nonnull align 8 dereferenceable(8) %3) #3
  br label %39

39:                                               ; preds = %38, %21
  call void @llvm.lifetime.end.p0(i64 8, ptr %3) #3
  %40 = load i1, ptr %8, align 1
  br i1 %40, label %41, label %42

41:                                               ; preds = %39
  call void @_ZdlPv(ptr noundef %10) #27
  br label %42

42:                                               ; preds = %41, %39
  br label %43

43:                                               ; preds = %42
  %44 = load ptr, ptr %4, align 8
  %45 = load i32, ptr %5, align 4
  %46 = insertvalue { ptr, i32 } poison, ptr %44, 0
  %47 = insertvalue { ptr, i32 } %46, i32 %45, 1
  resume { ptr, i32 } %47
}